; Function Attrs: nounwind uwtable
define internal ptr @builtin_id(ptr readnone captures(none) %0, ptr noundef %1) #0 {
  %3 = tail call ptr @PyLong_FromVoidPtr(ptr noundef %1) #9
  %.not = icmp eq ptr %3, null
  br i1 %.not, label %Py_DECREF.exit, label %4

4:                                                ; preds = %2
  %5 = tail call i32 (ptr, ptr, ...) @PySys_Audit(ptr noundef nonnull @.str.144, ptr noundef nonnull @.str.111, ptr noundef nonnull %3) #9
  %6 = icmp slt i32 %5, 0
  br i1 %6, label %7, label %Py_DECREF.exit

7:                                                ; preds = %4
  %8 = load i32, ptr %3, align 8, !tbaa !33
  %.not.i = icmp sgt i32 %8, -1
  br i1 %.not.i, label %9, label %Py_DECREF.exit

9:                                                ; preds = %7
  %10 = add nsw i32 %8, -1
  store i32 %10, ptr %3, align 8, !tbaa !33
  %11 = icmp eq i32 %10, 0
  br i1 %11, label %12, label %Py_DECREF.exit

12:                                               ; preds = %9
  tail call void @_Py_Dealloc(ptr noundef nonnull %3) #9
  br label %Py_DECREF.exit

Py_DECREF.exit:                                   ; preds = %12, %9, %7, %2, %4
  %.0 = phi ptr [ %3, %4 ], [ null, %2 ], [ null, %7 ], [ null, %9 ], [ null, %12 ]
  ret ptr %.0
}